; Function Attrs: mustprogress nofree norecurse nosync nounwind willreturn memory(argmem: readwrite) uwtable
define void @_ZN10open_spiel11tiny_bridge19TinyBridgePlayState10UndoActionEil(ptr nocapture noundef nonnull align 8 dereferenceable(136) %0, i32 %1, i64 %2) unnamed_addr #14 align 2 {
  %4 = getelementptr inbounds i8, ptr %0, i64 120
  %5 = load ptr, ptr %4, align 8
  %6 = getelementptr inbounds i8, ptr %5, i64 -8
  store ptr %6, ptr %4, align 8
  %7 = getelementptr inbounds i8, ptr %0, i64 40
  %8 = load ptr, ptr %7, align 8
  %9 = getelementptr inbounds i8, ptr %8, i64 -16
  store ptr %9, ptr %7, align 8
  %10 = getelementptr inbounds nuw i8, ptr %0, i64 56
  %11 = load i32, ptr %10, align 8
  %12 = add nsw i32 %11, -1
  store i32 %12, ptr %10, align 8
  ret void
}